target datalayout = "e-m:e-p270:32:32-p271:32:32-p272:64:64-i64:64-i128:128-f80:128-n8:16:32:64-S128"
target triple = "x86_64-pc-linux-gnu"

%struct.ident_t = type { i32, i32, i32, i32, ptr }

@1 = private unnamed_addr constant %struct.ident_t { i32 0, i32 514, i32 0, i32 22, ptr @0 }, align 8
@_ZTISt9exception = external constant ptr
@2 = private unnamed_addr constant %struct.ident_t { i32 0, i32 66, i32 0, i32 22, ptr @0 }, align 8

; Function Attrs: mustprogress nounwind uwtable
define internal noundef i32 @_ZL15zeroPaddingSizei(i32 noundef %0) #3 {
  %2 = alloca i32, align 4
  store i32 %0, ptr %2, align 4, !tbaa !4
  %3 = load i32, ptr %2, align 4, !tbaa !4
  %4 = mul nsw i32 2, %3
  ret i32 %4
}

; Function Attrs: alwaysinline norecurse nounwind uwtable
define internal void @_Z15many_cross_corriPiPPfS1_S1_.omp_outlined(ptr noalias noundef %0, ptr noalias noundef %1, ptr noundef nonnull align 4 dereferenceable(4) %2, ptr noundef nonnull align 8 dereferenceable(8) %3, ptr noundef nonnull align 8 dereferenceable(8) %4, ptr noundef nonnull align 8 dereferenceable(8) %5, ptr noundef nonnull align 8 dereferenceable(8) %6) #6 personality ptr @__gxx_personality_v0 {
  %8 = alloca ptr, align 8
  %9 = alloca ptr, align 8
  %10 = alloca ptr, align 8
  %11 = alloca ptr, align 8
  %12 = alloca ptr, align 8
  %13 = alloca ptr, align 8
  %14 = alloca ptr, align 8
  %15 = alloca i32, align 4
  %16 = alloca i32, align 4
  %17 = alloca i32, align 4
  %18 = alloca i32, align 4
  %19 = alloca i32, align 4
  %20 = alloca i32, align 4
  %21 = alloca i32, align 4
  %22 = alloca i32, align 4
  %23 = alloca i32, align 4
  %24 = alloca ptr, align 8
  %25 = alloca ptr, align 8
  %26 = alloca i32, align 4
  %27 = alloca ptr, align 8
  store ptr %0, ptr %8, align 8, !tbaa !32
  store ptr %1, ptr %9, align 8, !tbaa !32
  store ptr %2, ptr %10, align 8, !tbaa !32
  store ptr %3, ptr %11, align 8, !tbaa !36
  store ptr %4, ptr %12, align 8, !tbaa !38
  store ptr %5, ptr %13, align 8, !tbaa !38
  store ptr %6, ptr %14, align 8, !tbaa !38
  %28 = load ptr, ptr %10, align 8, !tbaa !32
  %29 = load ptr, ptr %11, align 8, !tbaa !36
  %30 = load ptr, ptr %12, align 8, !tbaa !38
  %31 = load ptr, ptr %13, align 8, !tbaa !38
  %32 = load ptr, ptr %14, align 8, !tbaa !38
  call void @llvm.lifetime.start.p0(i64 4, ptr %15) #7
  call void @llvm.lifetime.start.p0(i64 4, ptr %16) #7
  %33 = load i32, ptr %28, align 4, !tbaa !4
  store i32 %33, ptr %16, align 4, !tbaa !4
  call void @llvm.lifetime.start.p0(i64 4, ptr %17) #7
  %34 = load i32, ptr %16, align 4, !tbaa !4
  %35 = sub nsw i32 %34, 0
  %36 = sdiv i32 %35, 1
  %37 = sub nsw i32 %36, 1
  store i32 %37, ptr %17, align 4, !tbaa !4
  call void @llvm.lifetime.start.p0(i64 4, ptr %18) #7
  store i32 0, ptr %18, align 4, !tbaa !4
  call void @llvm.lifetime.end.p0(i64 4, ptr %18) #7
  %38 = load i32, ptr %16, align 4, !tbaa !4
  %39 = icmp slt i32 0, %38
  br i1 %39, label %40, label %117

40:                                               ; preds = %7
  call void @llvm.lifetime.start.p0(i64 4, ptr %19) #7
  store i32 0, ptr %19, align 4, !tbaa !4
  call void @llvm.lifetime.start.p0(i64 4, ptr %20) #7
  %41 = load i32, ptr %17, align 4, !tbaa !4
  store i32 %41, ptr %20, align 4, !tbaa !4
  call void @llvm.lifetime.start.p0(i64 4, ptr %21) #7
  store i32 1, ptr %21, align 4, !tbaa !4
  call void @llvm.lifetime.start.p0(i64 4, ptr %22) #7
  store i32 0, ptr %22, align 4, !tbaa !4
  call void @llvm.lifetime.start.p0(i64 4, ptr %23) #7
  %42 = load ptr, ptr %8, align 8
  %43 = load i32, ptr %42, align 4, !tbaa !4
  call void @__kmpc_for_static_init_4(ptr @1, i32 %43, i32 34, ptr %22, ptr %19, ptr %20, ptr %21, i32 1, i32 1)
  %44 = load i32, ptr %20, align 4, !tbaa !4
  %45 = load i32, ptr %17, align 4, !tbaa !4
  %46 = icmp sgt i32 %44, %45
  br i1 %46, label %47, label %49

47:                                               ; preds = %40
  %48 = load i32, ptr %17, align 4, !tbaa !4
  br label %51

49:                                               ; preds = %40
  %50 = load i32, ptr %20, align 4, !tbaa !4
  br label %51

51:                                               ; preds = %49, %47
  %52 = phi i32 [ %48, %47 ], [ %50, %49 ]
  store i32 %52, ptr %20, align 4, !tbaa !4
  %53 = load i32, ptr %19, align 4, !tbaa !4
  store i32 %53, ptr %15, align 4, !tbaa !4
  br label %54

54:                                               ; preds = %110, %51
  %55 = load i32, ptr %15, align 4, !tbaa !4
  %56 = load i32, ptr %20, align 4, !tbaa !4
  %57 = icmp sle i32 %55, %56
  br i1 %57, label %59, label %58

58:                                               ; preds = %54
  br label %113

59:                                               ; preds = %54
  %60 = load i32, ptr %15, align 4, !tbaa !4
  %61 = mul nsw i32 %60, 1
  %62 = add nsw i32 0, %61
  store i32 %62, ptr %23, align 4, !tbaa !4
  call void @llvm.lifetime.start.p0(i64 8, ptr %24) #7
  %63 = load ptr, ptr %29, align 8, !tbaa !32
  %64 = load i32, ptr %23, align 4, !tbaa !4
  %65 = sext i32 %64 to i64
  %66 = getelementptr inbounds i32, ptr %63, i64 %65
  %67 = load i32, ptr %66, align 4, !tbaa !4
  %68 = call noundef i32 @_ZL15zeroPaddingSizei(i32 noundef %67)
  %69 = invoke noundef i32 @_Z15gmx_fft_init_1dPP7gmx_fftii(ptr noundef %24, i32 noundef %68, i32 noundef 1)
          to label %70 unwind label %95

70:                                               ; preds = %59
  %71 = load ptr, ptr %29, align 8, !tbaa !32
  %72 = load i32, ptr %23, align 4, !tbaa !4
  %73 = sext i32 %72 to i64
  %74 = getelementptr inbounds i32, ptr %71, i64 %73
  %75 = load i32, ptr %74, align 4, !tbaa !4
  %76 = load ptr, ptr %30, align 8, !tbaa !34
  %77 = load i32, ptr %23, align 4, !tbaa !4
  %78 = sext i32 %77 to i64
  %79 = getelementptr inbounds ptr, ptr %76, i64 %78
  %80 = load ptr, ptr %79, align 8, !tbaa !8
  %81 = load ptr, ptr %31, align 8, !tbaa !34
  %82 = load i32, ptr %23, align 4, !tbaa !4
  %83 = sext i32 %82 to i64
  %84 = getelementptr inbounds ptr, ptr %81, i64 %83
  %85 = load ptr, ptr %84, align 8, !tbaa !8
  %86 = load ptr, ptr %32, align 8, !tbaa !34
  %87 = load i32, ptr %23, align 4, !tbaa !4
  %88 = sext i32 %87 to i64
  %89 = getelementptr inbounds ptr, ptr %86, i64 %88
  %90 = load ptr, ptr %89, align 8, !tbaa !8
  %91 = load ptr, ptr %24, align 8, !tbaa !11
  invoke void @_ZL14cross_corr_lowiPKfS0_PfP7gmx_fft(i32 noundef %75, ptr noundef %80, ptr noundef %85, ptr noundef %90, ptr noundef %91)
          to label %92 unwind label %95

92:                                               ; preds = %70
  %93 = load ptr, ptr %24, align 8, !tbaa !11
  invoke void @_Z15gmx_fft_destroyP7gmx_fft(ptr noundef %93)
          to label %94 unwind label %95

94:                                               ; preds = %92
  call void @llvm.lifetime.end.p0(i64 8, ptr %24) #7
  br label %108

95:                                               ; preds = %92, %70, %59
  %96 = landingpad { ptr, i32 }
          catch ptr @_ZTISt9exception
          catch ptr null
  %97 = extractvalue { ptr, i32 } %96, 0
  store ptr %97, ptr %25, align 8
  %98 = extractvalue { ptr, i32 } %96, 1
  store i32 %98, ptr %26, align 4
  call void @llvm.lifetime.end.p0(i64 8, ptr %24) #7
  br label %99

99:                                               ; preds = %95
  %100 = load i32, ptr %26, align 4
  %101 = call i32 @llvm.eh.typeid.for.p0(ptr @_ZTISt9exception) #7
  %102 = icmp eq i32 %100, %101
  br i1 %102, label %103, label %123

103:                                              ; preds = %99
  call void @llvm.lifetime.start.p0(i64 8, ptr %27) #7
  %104 = load ptr, ptr %25, align 8
  %105 = call ptr @__cxa_begin_catch(ptr %104) #7
  store ptr %105, ptr %27, align 8
  %106 = load ptr, ptr %27, align 8, !tbaa !41
  invoke void @_ZN3gmx28processExceptionAsFatalErrorERKSt9exception(ptr noundef nonnull align 8 dereferenceable(8) %106) #12
          to label %107 unwind label %120

107:                                              ; preds = %103
  unreachable

108:                                              ; preds = %94
  br label %109

109:                                              ; preds = %108
  br label %110

110:                                              ; preds = %109
  %111 = load i32, ptr %15, align 4, !tbaa !4
  %112 = add nsw i32 %111, 1
  store i32 %112, ptr %15, align 4, !tbaa !4
  br label %54

113:                                              ; preds = %58
  br label %114

114:                                              ; preds = %113
  %115 = load ptr, ptr %8, align 8
  %116 = load i32, ptr %115, align 4, !tbaa !4
  call void @__kmpc_for_static_fini(ptr @1, i32 %116)
  call void @llvm.lifetime.end.p0(i64 4, ptr %23) #7
  call void @llvm.lifetime.end.p0(i64 4, ptr %22) #7
  call void @llvm.lifetime.end.p0(i64 4, ptr %21) #7
  call void @llvm.lifetime.end.p0(i64 4, ptr %20) #7
  call void @llvm.lifetime.end.p0(i64 4, ptr %19) #7
  br label %117

117:                                              ; preds = %114, %7
  call void @llvm.lifetime.end.p0(i64 4, ptr %17) #7
  call void @llvm.lifetime.end.p0(i64 4, ptr %16) #7
  call void @llvm.lifetime.end.p0(i64 4, ptr %15) #7
  %118 = load ptr, ptr %8, align 8
  %119 = load i32, ptr %118, align 4, !tbaa !4
  call void @__kmpc_barrier(ptr @2, i32 %119)
  ret void

120:                                              ; preds = %103
  %121 = landingpad { ptr, i32 }
          catch ptr null
  %122 = extractvalue { ptr, i32 } %121, 0
  call void @__clang_call_terminate(ptr %122) #13
  unreachable

123:                                              ; preds = %99
  %124 = load ptr, ptr %25, align 8
  call void @__clang_call_terminate(ptr %124) #13
  unreachable
}