; Function Attrs: alwaysinline norecurse nounwind uwtable
define internal void @_Z15many_cross_corriPiPPfS1_S1_.omp_outlined(ptr noalias noundef readonly captures(none) %0, ptr noalias readnone captures(none) %1, ptr noundef nonnull readonly align 4 captures(none) dereferenceable(4) %2, ptr noundef nonnull readonly align 8 captures(none) dereferenceable(8) %3, ptr noundef nonnull readonly align 8 captures(none) dereferenceable(8) %4, ptr noundef nonnull readonly align 8 captures(none) dereferenceable(8) %5, ptr noundef nonnull readonly align 8 captures(none) dereferenceable(8) %6) #4 personality ptr @__gxx_personality_v0 {
  %8 = alloca i32, align 4
  %9 = alloca i32, align 4
  %10 = alloca i32, align 4
  %11 = alloca i32, align 4
  %12 = alloca ptr, align 8
  %13 = load i32, ptr %2, align 4, !tbaa !19
  %14 = icmp sgt i32 %13, 0
  %.pre = load i32, ptr %0, align 4, !tbaa !19
  br i1 %14, label %15, label %54

15:                                               ; preds = %7
  %16 = add nsw i32 %13, -1
  call void @llvm.lifetime.start.p0(i64 4, ptr nonnull %8) #5
  store i32 0, ptr %8, align 4, !tbaa !19
  call void @llvm.lifetime.start.p0(i64 4, ptr nonnull %9) #5
  store i32 %16, ptr %9, align 4, !tbaa !19
  call void @llvm.lifetime.start.p0(i64 4, ptr nonnull %10) #5
  store i32 1, ptr %10, align 4, !tbaa !19
  call void @llvm.lifetime.start.p0(i64 4, ptr nonnull %11) #5
  store i32 0, ptr %11, align 4, !tbaa !19
  call void @__kmpc_for_static_init_4(ptr nonnull @1, i32 %.pre, i32 34, ptr nonnull %11, ptr nonnull %8, ptr nonnull %9, ptr nonnull %10, i32 1, i32 1)
  %17 = load i32, ptr %9, align 4, !tbaa !19
  %18 = call i32 @llvm.smin.i32(i32 %17, i32 %16)
  store i32 %18, ptr %9, align 4, !tbaa !19
  %19 = load i32, ptr %8, align 4, !tbaa !19
  %.not24 = icmp sgt i32 %19, %18
  br i1 %.not24, label %._crit_edge, label %.lr.ph.preheader

.lr.ph.preheader:                                 ; preds = %15
  %20 = sext i32 %19 to i64
  br label %.lr.ph

.lr.ph:                                           ; preds = %.lr.ph.preheader, %42
  %indvars.iv = phi i64 [ %20, %.lr.ph.preheader ], [ %indvars.iv.next, %42 ]
  call void @llvm.lifetime.start.p0(i64 8, ptr nonnull %12) #5
  %21 = load ptr, ptr %3, align 8, !tbaa !21
  %22 = getelementptr inbounds i32, ptr %21, i64 %indvars.iv
  %23 = load i32, ptr %22, align 4, !tbaa !19
  %24 = shl nsw i32 %23, 1
  %25 = invoke noundef i32 @_Z15gmx_fft_init_1dPP7gmx_fftii(ptr noundef nonnull %12, i32 noundef %24, i32 noundef 1)
          to label %26 unwind label %45

26:                                               ; preds = %.lr.ph
  %27 = load ptr, ptr %3, align 8, !tbaa !21
  %28 = getelementptr inbounds i32, ptr %27, i64 %indvars.iv
  %29 = load i32, ptr %28, align 4, !tbaa !19
  %30 = load ptr, ptr %4, align 8, !tbaa !23
  %31 = getelementptr inbounds ptr, ptr %30, i64 %indvars.iv
  %32 = load ptr, ptr %31, align 8, !tbaa !26
  %33 = load ptr, ptr %5, align 8, !tbaa !23
  %34 = getelementptr inbounds ptr, ptr %33, i64 %indvars.iv
  %35 = load ptr, ptr %34, align 8, !tbaa !26
  %36 = load ptr, ptr %6, align 8, !tbaa !23
  %37 = getelementptr inbounds ptr, ptr %36, i64 %indvars.iv
  %38 = load ptr, ptr %37, align 8, !tbaa !26
  %39 = load ptr, ptr %12, align 8, !tbaa !4
  invoke fastcc void @_ZL14cross_corr_lowiPKfS0_PfP7gmx_fft(i32 noundef %29, ptr noundef %32, ptr noundef %35, ptr noundef %38, ptr noundef %39)
          to label %40 unwind label %45

40:                                               ; preds = %26
  %41 = load ptr, ptr %12, align 8, !tbaa !4
  invoke void @_Z15gmx_fft_destroyP7gmx_fft(ptr noundef %41)
          to label %42 unwind label %45

42:                                               ; preds = %40
  call void @llvm.lifetime.end.p0(i64 8, ptr nonnull %12) #5
  %indvars.iv.next = add nsw i64 %indvars.iv, 1
  %43 = load i32, ptr %9, align 4, !tbaa !19
  %44 = sext i32 %43 to i64
  %.not.not = icmp slt i64 %indvars.iv, %44
  br i1 %.not.not, label %.lr.ph, label %._crit_edge

45:                                               ; preds = %40, %26, %.lr.ph
  %46 = landingpad { ptr, i32 }
          catch ptr @_ZTISt9exception
          catch ptr null
  %47 = extractvalue { ptr, i32 } %46, 0
  %48 = extractvalue { ptr, i32 } %46, 1
  call void @llvm.lifetime.end.p0(i64 8, ptr nonnull %12) #5
  %49 = call i32 @llvm.eh.typeid.for.p0(ptr nonnull @_ZTISt9exception) #5
  %50 = icmp eq i32 %48, %49
  br i1 %50, label %51, label %58

51:                                               ; preds = %45
  %52 = call ptr @__cxa_begin_catch(ptr %47) #5
  invoke void @_ZN3gmx28processExceptionAsFatalErrorERKSt9exception(ptr noundef nonnull align 8 dereferenceable(8) %52) #12
          to label %53 unwind label %55

53:                                               ; preds = %51
  unreachable

._crit_edge:                                      ; preds = %42, %15
  call void @__kmpc_for_static_fini(ptr nonnull @1, i32 %.pre)
  call void @llvm.lifetime.end.p0(i64 4, ptr nonnull %11) #5
  call void @llvm.lifetime.end.p0(i64 4, ptr nonnull %10) #5
  call void @llvm.lifetime.end.p0(i64 4, ptr nonnull %9) #5
  call void @llvm.lifetime.end.p0(i64 4, ptr nonnull %8) #5
  br label %54

54:                                               ; preds = %._crit_edge, %7
  call void @__kmpc_barrier(ptr nonnull @2, i32 %.pre)
  ret void

55:                                               ; preds = %51
  %56 = landingpad { ptr, i32 }
          catch ptr null
  %57 = extractvalue { ptr, i32 } %56, 0
  call void @__clang_call_terminate(ptr %57) #13
  unreachable

58:                                               ; preds = %45
  call void @__clang_call_terminate(ptr %47) #13
  unreachable
}